target datalayout = "e-m:e-p270:32:32-p271:32:32-p272:64:64-i64:64-i128:128-f80:128-n8:16:32:64-S128"
target triple = "x86_64-pc-linux-gnu"

%union.pthread_mutexattr_t = type { i32 }

; Function Attrs: nounwind uwtable
define dso_local i32 @uv_mutex_init_recursive(ptr noundef %0) #0 {
  %2 = alloca ptr, align 8
  %3 = alloca %union.pthread_mutexattr_t, align 4
  %4 = alloca i32, align 4
  store ptr %0, ptr %2, align 8, !tbaa !4
  call void @llvm.lifetime.start.p0(i64 4, ptr %3) #8
  call void @llvm.lifetime.start.p0(i64 4, ptr %4) #8
  %5 = call i32 @pthread_mutexattr_init(ptr noundef %3) #8
  %6 = icmp ne i32 %5, 0
  br i1 %6, label %7, label %8

7:                                                ; preds = %1
  call void @abort() #9
  unreachable

8:                                                ; preds = %1
  %9 = call i32 @pthread_mutexattr_settype(ptr noundef %3, i32 noundef 1) #8
  %10 = icmp ne i32 %9, 0
  br i1 %10, label %11, label %12

11:                                               ; preds = %8
  call void @abort() #9
  unreachable

12:                                               ; preds = %8
  %13 = load ptr, ptr %2, align 8, !tbaa !4
  %14 = call i32 @pthread_mutex_init(ptr noundef %13, ptr noundef %3) #8
  store i32 %14, ptr %4, align 4, !tbaa !8
  %15 = call i32 @pthread_mutexattr_destroy(ptr noundef %3) #8
  %16 = icmp ne i32 %15, 0
  br i1 %16, label %17, label %18

17:                                               ; preds = %12
  call void @abort() #9
  unreachable

18:                                               ; preds = %12
  %19 = load i32, ptr %4, align 4, !tbaa !8
  %20 = sub nsw i32 0, %19
  call void @llvm.lifetime.end.p0(i64 4, ptr %4) #8
  call void @llvm.lifetime.end.p0(i64 4, ptr %3) #8
  ret i32 %20
}