; Function Attrs: nounwind uwtable
define dso_local range(i32 -2147483647, -2147483648) i32 @uv_mutex_init_recursive(ptr noundef %0) local_unnamed_addr #0 {
  %2 = alloca %union.pthread_mutexattr_t, align 4
  call void @llvm.lifetime.start.p0(i64 4, ptr nonnull %2) #10
  %3 = call i32 @pthread_mutexattr_init(ptr noundef nonnull %2) #10
  %.not = icmp eq i32 %3, 0
  br i1 %.not, label %5, label %4

4:                                                ; preds = %1
  call void @abort() #11
  unreachable

5:                                                ; preds = %1
  %6 = call i32 @pthread_mutexattr_settype(ptr noundef nonnull %2, i32 noundef 1) #10
  %.not1 = icmp eq i32 %6, 0
  br i1 %.not1, label %8, label %7

7:                                                ; preds = %5
  call void @abort() #11
  unreachable

8:                                                ; preds = %5
  %9 = call i32 @pthread_mutex_init(ptr noundef %0, ptr noundef nonnull %2) #10
  %10 = call i32 @pthread_mutexattr_destroy(ptr noundef nonnull %2) #10
  %.not2 = icmp eq i32 %10, 0
  br i1 %.not2, label %12, label %11

11:                                               ; preds = %8
  call void @abort() #11
  unreachable

12:                                               ; preds = %8
  %13 = sub nsw i32 0, %9
  call void @llvm.lifetime.end.p0(i64 4, ptr nonnull %2) #10
  ret i32 %13
}